target datalayout = "e-m:e-p270:32:32-p271:32:32-p272:64:64-i64:64-i128:128-f80:128-n8:16:32:64-S128"
target triple = "x86_64-pc-linux-gnu"

%struct.magic_set = type { [2 x ptr], %struct.cont, %struct.out, i32, i32, i32, i32, i32, ptr, i64, i32, %struct.anon, %union.VALUETYPE, i16, i16, i16, i16, i16, i16, i64, i64, i64 }
%struct.cont = type { i64, ptr }
%struct.out = type { ptr, i64, ptr }
%struct.anon = type { ptr, i64, i64, i64 }
%union.VALUETYPE = type { [2 x i64], [112 x i8] }
%struct.file_pushbuf_t = type { ptr, i64, i32 }

; Function Attrs: nounwind uwtable
define hidden ptr @file_pop_buffer(ptr noundef %0, ptr noundef %1) #0 {
  %3 = alloca ptr, align 8
  %4 = alloca ptr, align 8
  %5 = alloca ptr, align 8
  %6 = alloca ptr, align 8
  store ptr %0, ptr %4, align 8
  store ptr %1, ptr %5, align 8
  %7 = load ptr, ptr %4, align 8
  %8 = getelementptr inbounds %struct.magic_set, ptr %7, i32 0, i32 7
  %9 = load i32, ptr %8, align 8
  %10 = and i32 %9, 1
  %11 = icmp ne i32 %10, 0
  br i1 %11, label %12, label %17

12:                                               ; preds = %2
  %13 = load ptr, ptr %5, align 8
  %14 = getelementptr inbounds %struct.file_pushbuf_t, ptr %13, i32 0, i32 0
  %15 = load ptr, ptr %14, align 8
  call void @_efree(ptr noundef %15)
  %16 = load ptr, ptr %5, align 8
  call void @_efree(ptr noundef %16)
  store ptr null, ptr %3, align 8
  br label %41

17:                                               ; preds = %2
  %18 = load ptr, ptr %4, align 8
  %19 = getelementptr inbounds %struct.magic_set, ptr %18, i32 0, i32 2
  %20 = getelementptr inbounds %struct.out, ptr %19, i32 0, i32 0
  %21 = load ptr, ptr %20, align 8
  store ptr %21, ptr %6, align 8
  %22 = load ptr, ptr %5, align 8
  %23 = getelementptr inbounds %struct.file_pushbuf_t, ptr %22, i32 0, i32 0
  %24 = load ptr, ptr %23, align 8
  %25 = load ptr, ptr %4, align 8
  %26 = getelementptr inbounds %struct.magic_set, ptr %25, i32 0, i32 2
  %27 = getelementptr inbounds %struct.out, ptr %26, i32 0, i32 0
  store ptr %24, ptr %27, align 8
  %28 = load ptr, ptr %5, align 8
  %29 = getelementptr inbounds %struct.file_pushbuf_t, ptr %28, i32 0, i32 1
  %30 = load i64, ptr %29, align 8
  %31 = load ptr, ptr %4, align 8
  %32 = getelementptr inbounds %struct.magic_set, ptr %31, i32 0, i32 2
  %33 = getelementptr inbounds %struct.out, ptr %32, i32 0, i32 1
  store i64 %30, ptr %33, align 8
  %34 = load ptr, ptr %5, align 8
  %35 = getelementptr inbounds %struct.file_pushbuf_t, ptr %34, i32 0, i32 2
  %36 = load i32, ptr %35, align 8
  %37 = load ptr, ptr %4, align 8
  %38 = getelementptr inbounds %struct.magic_set, ptr %37, i32 0, i32 3
  store i32 %36, ptr %38, align 8
  %39 = load ptr, ptr %5, align 8
  call void @_efree(ptr noundef %39)
  %40 = load ptr, ptr %6, align 8
  store ptr %40, ptr %3, align 8
  br label %41

41:                                               ; preds = %17, %12
  %42 = load ptr, ptr %3, align 8
  ret ptr %42
}