; Function Attrs: nounwind uwtable
define hidden ptr @file_pop_buffer(ptr nocapture noundef %0, ptr noundef %1) local_unnamed_addr #2 {
  %3 = getelementptr inbounds i8, ptr %0, i64 72
  %4 = load i32, ptr %3, align 8
  %5 = and i32 %4, 1
  %.not = icmp eq i32 %5, 0
  br i1 %.not, label %8, label %6

6:                                                ; preds = %2
  %7 = load ptr, ptr %1, align 8
  tail call void @_efree(ptr noundef %7) #17
  br label %18

8:                                                ; preds = %2
  %9 = getelementptr inbounds i8, ptr %0, i64 32
  %10 = load ptr, ptr %9, align 8
  %11 = load ptr, ptr %1, align 8
  store ptr %11, ptr %9, align 8
  %12 = getelementptr inbounds i8, ptr %1, i64 8
  %13 = load i64, ptr %12, align 8
  %14 = getelementptr inbounds i8, ptr %0, i64 40
  store i64 %13, ptr %14, align 8
  %15 = getelementptr inbounds i8, ptr %1, i64 16
  %16 = load i32, ptr %15, align 8
  %17 = getelementptr inbounds i8, ptr %0, i64 56
  store i32 %16, ptr %17, align 8
  br label %18

18:                                               ; preds = %8, %6
  %.0 = phi ptr [ null, %6 ], [ %10, %8 ]
  tail call void @_efree(ptr noundef nonnull %1) #17
  ret ptr %.0
}